; ModuleID = '16/475.c'
source_filename = "16/475.c"
target datalayout = "e-m:e-p270:32:32-p271:32:32-p272:64:64-i64:64-f80:128-n8:16:32:64-S128"
target triple = "x86_64-pc-linux-gnu"

@.str = private unnamed_addr constant [3 x i8] c"%d\00", align 1

; Function Attrs: noinline nounwind uwtable
define dso_local i32 @main() #0 {
  %1 = alloca i32, align 4
  %2 = alloca i32, align 4
  %3 = alloca i32, align 4
  %4 = alloca i32, align 4
  %5 = alloca [5 x i32], align 16
  store i32 0, i32* %1, align 4
  %6 = call i32 (i8*, ...) @__isoc99_scanf(i8* getelementptr inbounds ([3 x i8], [3 x i8]* @.str, i64 0, i64 0), i32* %2)
  %7 = load i32, i32* %2, align 4
  %8 = icmp sle i32 %7, 9
  br i1 %8, label %9, label %10

9:                                                ; preds = %0
  store i32 1, i32* %3, align 4
  br label %26

10:                                               ; preds = %0
  %11 = load i32, i32* %2, align 4
  %12 = icmp sle i32 %11, 99
  br i1 %12, label %13, label %14

13:                                               ; preds = %10
  store i32 2, i32* %3, align 4
  br label %25

14:                                               ; preds = %10
  %15 = load i32, i32* %2, align 4
  %16 = icmp sle i32 %15, 999
  br i1 %16, label %17, label %18

17:                                               ; preds = %14
  store i32 3, i32* %3, align 4
  br label %24

18:                                               ; preds = %14
  %19 = load i32, i32* %2, align 4
  %20 = icmp sle i32 %19, 9999
  br i1 %20, label %21, label %22

21:                                               ; preds = %18
  store i32 4, i32* %3, align 4
  br label %23

22:                                               ; preds = %18
  store i32 5, i32* %3, align 4
  br label %23

23:                                               ; preds = %22, %21
  br label %24

24:                                               ; preds = %23, %17
  br label %25

25:                                               ; preds = %24, %13
  br label %26

26:                                               ; preds = %25, %9
  store i32 0, i32* %4, align 4
  br label %27

27:                                               ; preds = %45, %26
  %28 = load i32, i32* %4, align 4
  %29 = load i32, i32* %3, align 4
  %30 = sub nsw i32 %29, 1
  %31 = icmp sle i32 %28, %30
  br i1 %31, label %32, label %48

32:                                               ; preds = %27
  %33 = load i32, i32* %2, align 4
  %34 = srem i32 %33, 10
  %35 = load i32, i32* %4, align 4
  %36 = sext i32 %35 to i64
  %37 = getelementptr inbounds [5 x i32], [5 x i32]* %5, i64 0, i64 %36
  store i32 %34, i32* %37, align 4
  %38 = load i32, i32* %2, align 4
  %39 = load i32, i32* %4, align 4
  %40 = sext i32 %39 to i64
  %41 = getelementptr inbounds [5 x i32], [5 x i32]* %5, i64 0, i64 %40
  %42 = load i32, i32* %41, align 4
  %43 = sub nsw i32 %38, %42
  %44 = sdiv i32 %43, 10
  store i32 %44, i32* %2, align 4
  br label %45

45:                                               ; preds = %32
  %46 = load i32, i32* %4, align 4
  %47 = add nsw i32 %46, 1
  store i32 %47, i32* %4, align 4
  br label %27

48:                                               ; preds = %27
  store i32 0, i32* %4, align 4
  br label %49

49:                                               ; preds = %60, %48
  %50 = load i32, i32* %4, align 4
  %51 = load i32, i32* %3, align 4
  %52 = sub nsw i32 %51, 1
  %53 = icmp sle i32 %50, %52
  br i1 %53, label %54, label %63

54:                                               ; preds = %49
  %55 = load i32, i32* %4, align 4
  %56 = sext i32 %55 to i64
  %57 = getelementptr inbounds [5 x i32], [5 x i32]* %5, i64 0, i64 %56
  %58 = load i32, i32* %57, align 4
  %59 = call i32 (i8*, ...) @printf(i8* getelementptr inbounds ([3 x i8], [3 x i8]* @.str, i64 0, i64 0), i32 %58)
  br label %60

60:                                               ; preds = %54
  %61 = load i32, i32* %4, align 4
  %62 = add nsw i32 %61, 1
  store i32 %62, i32* %4, align 4
  br label %49

63:                                               ; preds = %49
  ret i32 0
}

declare dso_local i32 @__isoc99_scanf(i8*, ...) #1

declare dso_local i32 @printf(i8*, ...) #1


!llvm.module.flags = !{!0}
!llvm.ident = !{!1}

!0 = !{i32 1, !"wchar_size", i32 4}
!1 = !{!"clang version 10.0.0-4ubuntu1 "}
